; Function Attrs: nofree norecurse nosync nounwind memory(read, argmem: readwrite, inaccessiblemem: none) uwtable
define range(i32 0, 2) i32 @BacManReadBacLine(ptr noundef readonly captures(none) %0, ptr noundef captures(none) %1, ptr noundef writeonly %2, ptr noundef readnone %3) local_unnamed_addr #0 {
  %5 = getelementptr i8, ptr %0, i64 8
  %6 = load i32, ptr %1, align 4
  %7 = add nsw i32 %6, 1
  store i32 %7, ptr %1, align 4
  %.val8 = load ptr, ptr %5, align 8
  %8 = sext i32 %6 to i64
  %9 = getelementptr inbounds i8, ptr %.val8, i64 %8
  %10 = load i8, ptr %9, align 1
  %11 = icmp ne i8 %10, 10
  %12 = icmp ult ptr %2, %3
  %13 = and i1 %11, %12
  br i1 %13, label %.lr.ph, label %._crit_edge

.lr.ph:                                           ; preds = %4, %.lr.ph
  %14 = phi i8 [ %20, %.lr.ph ], [ %10, %4 ]
  %.09 = phi ptr [ %15, %.lr.ph ], [ %2, %4 ]
  %15 = getelementptr inbounds nuw i8, ptr %.09, i64 1
  store i8 %14, ptr %.09, align 1
  %16 = load i32, ptr %1, align 4
  %17 = add nsw i32 %16, 1
  store i32 %17, ptr %1, align 4
  %.val = load ptr, ptr %5, align 8
  %18 = sext i32 %16 to i64
  %19 = getelementptr inbounds i8, ptr %.val, i64 %18
  %20 = load i8, ptr %19, align 1
  %21 = icmp ne i8 %20, 10
  %22 = icmp ult ptr %15, %3
  %23 = select i1 %21, i1 %22, i1 false
  br i1 %23, label %.lr.ph, label %._crit_edge, !llvm.loop !4

._crit_edge:                                      ; preds = %.lr.ph, %4
  %.0.lcssa = phi ptr [ %2, %4 ], [ %15, %.lr.ph ]
  %.lcssa = phi i1 [ %12, %4 ], [ %22, %.lr.ph ]
  store i8 0, ptr %.0.lcssa, align 1
  %24 = zext i1 %.lcssa to i32
  ret i32 %24
}